; ModuleID = '12/970.c'
source_filename = "12/970.c"
target datalayout = "e-m:e-p270:32:32-p271:32:32-p272:64:64-i64:64-f80:128-n8:16:32:64-S128"
target triple = "x86_64-pc-linux-gnu"

@.str = private unnamed_addr constant [3 x i8] c"%d\00", align 1
@.str.1 = private unnamed_addr constant [4 x i8] c"%d\0A\00", align 1

; Function Attrs: noinline nounwind uwtable
define dso_local i32 @main() #0 {
  %1 = alloca i32, align 4
  %2 = alloca i32, align 4
  %3 = alloca i32, align 4
  %4 = alloca i32, align 4
  %5 = alloca i32, align 4
  %6 = alloca i32, align 4
  %7 = alloca i32, align 4
  %8 = alloca i32, align 4
  %9 = alloca [16 x i32], align 16
  %10 = alloca [20 x i32], align 16
  store i32 0, i32* %1, align 4
  store i32 0, i32* %2, align 4
  store i32 0, i32* %3, align 4
  store i32 0, i32* %4, align 4
  %11 = bitcast [16 x i32]* %9 to i8*
  call void @llvm.memset.p0i8.i64(i8* align 16 %11, i8 0, i64 64, i1 false)
  %12 = bitcast [20 x i32]* %10 to i8*
  call void @llvm.memset.p0i8.i64(i8* align 16 %12, i8 0, i64 80, i1 false)
  br label %13

13:                                               ; preds = %0, %105
  br label %14

14:                                               ; preds = %33, %13
  %15 = load i32, i32* %2, align 4
  %16 = sext i32 %15 to i64
  %17 = getelementptr inbounds [16 x i32], [16 x i32]* %9, i64 0, i64 %16
  %18 = call i32 (i8*, ...) @__isoc99_scanf(i8* getelementptr inbounds ([3 x i8], [3 x i8]* @.str, i64 0, i64 0), i32* %17)
  %19 = icmp ne i32 %18, 0
  br i1 %19, label %20, label %36

20:                                               ; preds = %14
  %21 = load i32, i32* %2, align 4
  %22 = sext i32 %21 to i64
  %23 = getelementptr inbounds [16 x i32], [16 x i32]* %9, i64 0, i64 %22
  %24 = load i32, i32* %23, align 4
  %25 = icmp eq i32 %24, 0
  br i1 %25, label %32, label %26

26:                                               ; preds = %20
  %27 = load i32, i32* %2, align 4
  %28 = sext i32 %27 to i64
  %29 = getelementptr inbounds [16 x i32], [16 x i32]* %9, i64 0, i64 %28
  %30 = load i32, i32* %29, align 4
  %31 = icmp eq i32 %30, -1
  br i1 %31, label %32, label %33

32:                                               ; preds = %26, %20
  br label %36

33:                                               ; preds = %26
  %34 = load i32, i32* %2, align 4
  %35 = add nsw i32 %34, 1
  store i32 %35, i32* %2, align 4
  br label %14

36:                                               ; preds = %32, %14
  %37 = getelementptr inbounds [16 x i32], [16 x i32]* %9, i64 0, i64 0
  %38 = load i32, i32* %37, align 16
  %39 = icmp eq i32 %38, -1
  br i1 %39, label %40, label %41

40:                                               ; preds = %36
  br label %106

41:                                               ; preds = %36
  %42 = load i32, i32* %2, align 4
  store i32 %42, i32* %5, align 4
  store i32 0, i32* %7, align 4
  br label %43

43:                                               ; preds = %84, %41
  %44 = load i32, i32* %7, align 4
  %45 = load i32, i32* %5, align 4
  %46 = icmp slt i32 %44, %45
  br i1 %46, label %47, label %87

47:                                               ; preds = %43
  %48 = load i32, i32* %7, align 4
  %49 = add nsw i32 %48, 1
  store i32 %49, i32* %8, align 4
  br label %50

50:                                               ; preds = %80, %47
  %51 = load i32, i32* %8, align 4
  %52 = load i32, i32* %5, align 4
  %53 = icmp sle i32 %51, %52
  br i1 %53, label %54, label %83

54:                                               ; preds = %50
  %55 = load i32, i32* %7, align 4
  %56 = sext i32 %55 to i64
  %57 = getelementptr inbounds [16 x i32], [16 x i32]* %9, i64 0, i64 %56
  %58 = load i32, i32* %57, align 4
  %59 = load i32, i32* %8, align 4
  %60 = sext i32 %59 to i64
  %61 = getelementptr inbounds [16 x i32], [16 x i32]* %9, i64 0, i64 %60
  %62 = load i32, i32* %61, align 4
  %63 = mul nsw i32 2, %62
  %64 = icmp eq i32 %58, %63
  br i1 %64, label %76, label %65

65:                                               ; preds = %54
  %66 = load i32, i32* %8, align 4
  %67 = sext i32 %66 to i64
  %68 = getelementptr inbounds [16 x i32], [16 x i32]* %9, i64 0, i64 %67
  %69 = load i32, i32* %68, align 4
  %70 = load i32, i32* %7, align 4
  %71 = sext i32 %70 to i64
  %72 = getelementptr inbounds [16 x i32], [16 x i32]* %9, i64 0, i64 %71
  %73 = load i32, i32* %72, align 4
  %74 = mul nsw i32 2, %73
  %75 = icmp eq i32 %69, %74
  br i1 %75, label %76, label %79

76:                                               ; preds = %65, %54
  %77 = load i32, i32* %4, align 4
  %78 = add nsw i32 %77, 1
  store i32 %78, i32* %4, align 4
  br label %79

79:                                               ; preds = %76, %65
  br label %80

80:                                               ; preds = %79
  %81 = load i32, i32* %8, align 4
  %82 = add nsw i32 %81, 1
  store i32 %82, i32* %8, align 4
  br label %50

83:                                               ; preds = %50
  br label %84

84:                                               ; preds = %83
  %85 = load i32, i32* %7, align 4
  %86 = add nsw i32 %85, 1
  store i32 %86, i32* %7, align 4
  br label %43

87:                                               ; preds = %43
  %88 = load i32, i32* %4, align 4
  %89 = load i32, i32* %3, align 4
  %90 = sext i32 %89 to i64
  %91 = getelementptr inbounds [20 x i32], [20 x i32]* %10, i64 0, i64 %90
  store i32 %88, i32* %91, align 4
  store i32 0, i32* %4, align 4
  br label %92

92:                                               ; preds = %87
  %93 = load i32, i32* %3, align 4
  %94 = add nsw i32 %93, 1
  store i32 %94, i32* %3, align 4
  store i32 0, i32* %2, align 4
  br label %95

95:                                               ; preds = %102, %92
  %96 = load i32, i32* %2, align 4
  %97 = icmp slt i32 %96, 16
  br i1 %97, label %98, label %105

98:                                               ; preds = %95
  %99 = load i32, i32* %2, align 4
  %100 = sext i32 %99 to i64
  %101 = getelementptr inbounds [16 x i32], [16 x i32]* %9, i64 0, i64 %100
  store i32 0, i32* %101, align 4
  br label %102

102:                                              ; preds = %98
  %103 = load i32, i32* %2, align 4
  %104 = add nsw i32 %103, 1
  store i32 %104, i32* %2, align 4
  br label %95

105:                                              ; preds = %95
  store i32 0, i32* %2, align 4
  br label %13

106:                                              ; preds = %40
  store i32 0, i32* %2, align 4
  br label %107

107:                                              ; preds = %117, %106
  %108 = load i32, i32* %2, align 4
  %109 = load i32, i32* %3, align 4
  %110 = icmp slt i32 %108, %109
  br i1 %110, label %111, label %120

111:                                              ; preds = %107
  %112 = load i32, i32* %2, align 4
  %113 = sext i32 %112 to i64
  %114 = getelementptr inbounds [20 x i32], [20 x i32]* %10, i64 0, i64 %113
  %115 = load i32, i32* %114, align 4
  %116 = call i32 (i8*, ...) @printf(i8* getelementptr inbounds ([4 x i8], [4 x i8]* @.str.1, i64 0, i64 0), i32 %115)
  br label %117

117:                                              ; preds = %111
  %118 = load i32, i32* %2, align 4
  %119 = add nsw i32 %118, 1
  store i32 %119, i32* %2, align 4
  br label %107

120:                                              ; preds = %107
  ret i32 0
}

; Function Attrs: argmemonly nounwind willreturn
declare void @llvm.memset.p0i8.i64(i8* nocapture writeonly, i8, i64, i1 immarg) #1

declare dso_local i32 @__isoc99_scanf(i8*, ...) #2

declare dso_local i32 @printf(i8*, ...) #2


!llvm.module.flags = !{!0}
!llvm.ident = !{!1}

!0 = !{i32 1, !"wchar_size", i32 4}
!1 = !{!"clang version 10.0.0-4ubuntu1 "}
